; Function Attrs: mustprogress uwtable
define hidden void @_ZN2cv11xfeatures2d28BriefDescriptorExtractorImplC1Eib(ptr noundef nonnull align 8 dereferenceable(24) %0, i32 noundef %1, i1 noundef zeroext %2) unnamed_addr #3 align 2 personality ptr @__gxx_personality_v0 {
  %4 = alloca %"class.std::__cxx11::basic_string", align 8
  %5 = alloca %"class.std::allocator", align 1
  tail call void @_ZN2cv9AlgorithmC2Ev(ptr noundef nonnull align 8 dereferenceable(8) %0)
  %6 = zext i1 %2 to i8
  store ptr getelementptr inbounds nuw inrange(-80, 160) (i8, ptr @_ZTVN2cv11xfeatures2d28BriefDescriptorExtractorImplE, i64 80), ptr %0, align 8, !tbaa !14
  %7 = getelementptr inbounds nuw i8, ptr %0, i64 8
  store i32 %1, ptr %7, align 8, !tbaa !34
  %8 = getelementptr inbounds nuw i8, ptr %0, i64 12
  store i8 %6, ptr %8, align 4, !tbaa !39
  %9 = getelementptr inbounds nuw i8, ptr %0, i64 16
  store ptr null, ptr %9, align 8, !tbaa !40
  switch i32 %1, label %12 [
    i32 16, label %25
    i32 32, label %10
    i32 64, label %11
  ]

10:                                               ; preds = %3
  br label %25

11:                                               ; preds = %3
  br label %25

12:                                               ; preds = %3
  call void @llvm.lifetime.start.p0(i64 32, ptr nonnull %4) #25
  call void @llvm.lifetime.start.p0(i64 1, ptr nonnull %5) #25
  invoke void @_ZNSt7__cxx1112basic_stringIcSt11char_traitsIcESaIcEEC2EPKcRKS3_(ptr noundef nonnull align 8 dereferenceable(32) %4, ptr noundef nonnull @.str.1, ptr noundef nonnull align 1 dereferenceable(1) %5)
          to label %13 unwind label %15

13:                                               ; preds = %12
  invoke void @_ZN2cv5errorEiRKNSt7__cxx1112basic_stringIcSt11char_traitsIcESaIcEEEPKcS9_i(i32 noundef -5, ptr noundef nonnull align 8 dereferenceable(32) %4, ptr noundef nonnull @__func__._ZN2cv11xfeatures2d28BriefDescriptorExtractorImplC2Eib, ptr noundef nonnull @.str.2, i32 noundef 196) #26
          to label %14 unwind label %17

14:                                               ; preds = %13
  unreachable

15:                                               ; preds = %12
  %16 = landingpad { ptr, i32 }
          cleanup
  br label %_ZNSt7__cxx1112basic_stringIcSt11char_traitsIcESaIcEED2Ev.exit

17:                                               ; preds = %13
  %18 = landingpad { ptr, i32 }
          cleanup
  %19 = load ptr, ptr %4, align 8, !tbaa !32
  %20 = getelementptr inbounds nuw i8, ptr %4, i64 16
  %21 = icmp eq ptr %19, %20
  br i1 %21, label %_ZNKSt7__cxx1112basic_stringIcSt11char_traitsIcESaIcEE11_M_is_localEv.exit.thread.i.i, label %_ZNKSt7__cxx1112basic_stringIcSt11char_traitsIcESaIcEE11_M_is_localEv.exit.i.i

_ZNKSt7__cxx1112basic_stringIcSt11char_traitsIcESaIcEE11_M_is_localEv.exit.thread.i.i: ; preds = %17
  %22 = getelementptr inbounds nuw i8, ptr %4, i64 8
  %23 = load i64, ptr %22, align 8, !tbaa !26
  %24 = icmp ult i64 %23, 16
  call void @llvm.assume(i1 %24)
  br label %_ZNSt7__cxx1112basic_stringIcSt11char_traitsIcESaIcEED2Ev.exit

_ZNKSt7__cxx1112basic_stringIcSt11char_traitsIcESaIcEE11_M_is_localEv.exit.i.i: ; preds = %17
  call void @_ZdlPv(ptr noundef %19) #24
  br label %_ZNSt7__cxx1112basic_stringIcSt11char_traitsIcESaIcEED2Ev.exit

_ZNSt7__cxx1112basic_stringIcSt11char_traitsIcESaIcEED2Ev.exit: ; preds = %_ZNKSt7__cxx1112basic_stringIcSt11char_traitsIcESaIcEE11_M_is_localEv.exit.i.i, %_ZNKSt7__cxx1112basic_stringIcSt11char_traitsIcESaIcEE11_M_is_localEv.exit.thread.i.i, %15
  %.pn = phi { ptr, i32 } [ %16, %15 ], [ %18, %_ZNKSt7__cxx1112basic_stringIcSt11char_traitsIcESaIcEE11_M_is_localEv.exit.thread.i.i ], [ %18, %_ZNKSt7__cxx1112basic_stringIcSt11char_traitsIcESaIcEE11_M_is_localEv.exit.i.i ]
  call void @llvm.lifetime.end.p0(i64 1, ptr nonnull %5) #25
  call void @llvm.lifetime.end.p0(i64 32, ptr nonnull %4) #25
  call void @_ZN2cv9Feature2DD2Ev(ptr noundef nonnull align 8 dereferenceable(8) %0, ptr noundef nonnull getelementptr inbounds nuw (i8, ptr @_ZTTN2cv11xfeatures2d28BriefDescriptorExtractorImplE, i64 16)) #25
  call void @_ZN2cv9AlgorithmD2Ev(ptr noundef nonnull align 8 dereferenceable(8) %0) #25
  resume { ptr, i32 } %.pn

25:                                               ; preds = %3, %11, %10
  %_ZN2cv11xfeatures2dL12pixelTests64ERKNS_11_InputArrayERKSt6vectorINS_8KeyPointESaIS5_EERKNS_12_OutputArrayEb.sink = phi ptr [ @_ZN2cv11xfeatures2dL12pixelTests64ERKNS_11_InputArrayERKSt6vectorINS_8KeyPointESaIS5_EERKNS_12_OutputArrayEb, %11 ], [ @_ZN2cv11xfeatures2dL12pixelTests32ERKNS_11_InputArrayERKSt6vectorINS_8KeyPointESaIS5_EERKNS_12_OutputArrayEb, %10 ], [ @_ZN2cv11xfeatures2dL12pixelTests16ERKNS_11_InputArrayERKSt6vectorINS_8KeyPointESaIS5_EERKNS_12_OutputArrayEb, %3 ]
  store ptr %_ZN2cv11xfeatures2dL12pixelTests64ERKNS_11_InputArrayERKSt6vectorINS_8KeyPointESaIS5_EERKNS_12_OutputArrayEb.sink, ptr %9, align 8, !tbaa !40
  ret void
}